target datalayout = "e-m:e-p270:32:32-p271:32:32-p272:64:64-i64:64-i128:128-f80:128-n8:16:32:64-S128"
target triple = "x86_64-pc-linux-gnu"

%"class.icu_77::Hashtable" = type { ptr, %struct.UHashtable }
%struct.UHashtable = type { ptr, ptr, ptr, ptr, ptr, ptr, i32, i32, i32, i32, float, float, i8, i8 }
%"class.icu_77::TransliterationRuleData" = type { [8 x i8], %"class.icu_77::TransliterationRuleSet", %"class.icu_77::Hashtable", ptr, i8, i16, i32 }
%"class.icu_77::TransliterationRuleSet" = type { ptr, ptr, ptr, [257 x i32], i32 }
%"class.icu_77::UVector" = type { %"class.icu_77::UObject", i32, i32, ptr, ptr, ptr }
%"class.icu_77::UObject" = type { ptr }
%"class.icu_77::UnicodeString" = type { %"class.icu_77::Replaceable", %"union.icu_77::UnicodeString::StackBufferOrFields" }
%"class.icu_77::Replaceable" = type { %"class.icu_77::UObject" }
%"union.icu_77::UnicodeString::StackBufferOrFields" = type { %struct.anon.0, [32 x i8] }
%struct.anon.0 = type { i16, i32, i32, ptr }
%"class.icu_77::TransliteratorParser" = type <{ [8 x i8], %"class.icu_77::UVector", %"class.icu_77::UVector", ptr, ptr, i32, %struct.UParseError, [4 x i8], ptr, %"class.icu_77::UVector", %"class.icu_77::Hashtable", %"class.icu_77::UnicodeString", %"class.icu_77::UVector", i16, i16, [4 x i8], %"class.icu_77::UnicodeString", i16, [6 x i8] }>
%struct.UParseError = type { i32, i32, [16 x i16], [16 x i16] }

; Function Attrs: mustprogress nounwind uwtable
define noundef signext i8 @_ZNK6icu_7720TransliteratorParser18checkVariableRangeEi(ptr noundef nonnull align 8 dereferenceable(498) %0, i32 noundef %1) #0 align 2 {
  %3 = alloca ptr, align 8
  %4 = alloca i32, align 4
  store ptr %0, ptr %3, align 8, !tbaa !71
  store i32 %1, ptr %4, align 4, !tbaa !14
  %5 = load ptr, ptr %3, align 8
  %6 = load i32, ptr %4, align 4, !tbaa !14
  %7 = getelementptr inbounds nuw %"class.icu_77::TransliteratorParser", ptr %5, i32 0, i32 4
  %8 = load ptr, ptr %7, align 8, !tbaa !88
  %9 = getelementptr inbounds nuw %"class.icu_77::TransliterationRuleData", ptr %8, i32 0, i32 5
  %10 = load i16, ptr %9, align 2, !tbaa !50
  %11 = zext i16 %10 to i32
  %12 = icmp sge i32 %6, %11
  br i1 %12, label %13, label %19

13:                                               ; preds = %2
  %14 = load i32, ptr %4, align 4, !tbaa !14
  %15 = getelementptr inbounds nuw %"class.icu_77::TransliteratorParser", ptr %5, i32 0, i32 14
  %16 = load i16, ptr %15, align 2, !tbaa !111
  %17 = zext i16 %16 to i32
  %18 = icmp slt i32 %14, %17
  br label %19

19:                                               ; preds = %13, %2
  %20 = phi i1 [ false, %2 ], [ %18, %13 ]
  %21 = xor i1 %20, true
  %22 = zext i1 %21 to i8
  ret i8 %22
}