; Function Attrs: mustprogress nofree norecurse nosync nounwind willreturn memory(read, inaccessiblemem: none) uwtable
define noundef signext range(i8 0, 2) i8 @_ZNK6icu_7720TransliteratorParser18checkVariableRangeEi(ptr noundef nonnull readonly align 8 captures(none) dereferenceable(498) %0, i32 noundef %1) local_unnamed_addr #12 align 2 {
  %3 = getelementptr inbounds nuw i8, ptr %0, i64 96
  %4 = load ptr, ptr %3, align 8, !tbaa !66
  %5 = getelementptr inbounds nuw i8, ptr %4, i64 1162
  %6 = load i16, ptr %5, align 2, !tbaa !31
  %7 = zext i16 %6 to i32
  %.not = icmp slt i32 %1, %7
  %8 = getelementptr inbounds nuw i8, ptr %0, i64 426
  %9 = load i16, ptr %8, align 2
  %10 = zext i16 %9 to i32
  %11 = icmp sge i32 %1, %10
  %narrow = select i1 %.not, i1 true, i1 %11
  %12 = zext i1 %narrow to i8
  ret i8 %12
}